; ModuleID = 'source-C-CXX/24/1288.cpp'
source_filename = "source-C-CXX/24/1288.cpp"
target datalayout = "e-m:e-p270:32:32-p271:32:32-p272:64:64-i64:64-f80:128-n8:16:32:64-S128"
target triple = "x86_64-pc-linux-gnu"

%"class.std::ios_base::Init" = type { i8 }
%"class.std::basic_istream" = type { i32 (...)**, i64, %"class.std::basic_ios" }
%"class.std::basic_ios" = type { %"class.std::ios_base", %"class.std::basic_ostream"*, i8, i8, %"class.std::basic_streambuf"*, %"class.std::ctype"*, %"class.std::num_put"*, %"class.std::num_get"* }
%"class.std::ios_base" = type { i32 (...)**, i64, i64, i32, i32, i32, %"struct.std::ios_base::_Callback_list"*, %"struct.std::ios_base::_Words", [8 x %"struct.std::ios_base::_Words"], i32, %"struct.std::ios_base::_Words"*, %"class.std::locale" }
%"struct.std::ios_base::_Callback_list" = type { %"struct.std::ios_base::_Callback_list"*, void (i32, %"class.std::ios_base"*, i32)*, i32, i32 }
%"struct.std::ios_base::_Words" = type { i8*, i64 }
%"class.std::locale" = type { %"class.std::locale::_Impl"* }
%"class.std::locale::_Impl" = type { i32, %"class.std::locale::facet"**, i64, %"class.std::locale::facet"**, i8** }
%"class.std::locale::facet" = type <{ i32 (...)**, i32, [4 x i8] }>
%"class.std::basic_ostream" = type { i32 (...)**, %"class.std::basic_ios" }
%"class.std::basic_streambuf" = type { i32 (...)**, i8*, i8*, i8*, i8*, i8*, i8*, %"class.std::locale" }
%"class.std::ctype" = type <{ %"class.std::locale::facet.base", [4 x i8], %struct.__locale_struct*, i8, [7 x i8], i32*, i32*, i16*, i8, [256 x i8], [256 x i8], i8, [6 x i8] }>
%"class.std::locale::facet.base" = type <{ i32 (...)**, i32 }>
%struct.__locale_struct = type { [13 x %struct.__locale_data*], i16*, i32*, i32*, [13 x i8*] }
%struct.__locale_data = type opaque
%"class.std::num_put" = type { %"class.std::locale::facet.base", [4 x i8] }
%"class.std::num_get" = type { %"class.std::locale::facet.base", [4 x i8] }

@_ZStL8__ioinit = internal global %"class.std::ios_base::Init" zeroinitializer, align 1
@__dso_handle = external hidden global i8
@_ZSt3cin = external global %"class.std::basic_istream", align 8
@_ZSt4cout = external global %"class.std::basic_ostream", align 8
@llvm.global_ctors = appending global [1 x { i32, void ()*, i8* }] [{ i32, void ()*, i8* } { i32 65535, void ()* @_GLOBAL__sub_I_1288.cpp, i8* null }]

declare void @_ZNSt8ios_base4InitC1Ev(%"class.std::ios_base::Init"* nonnull align 1 dereferenceable(1)) unnamed_addr #0

; Function Attrs: nounwind
declare void @_ZNSt8ios_base4InitD1Ev(%"class.std::ios_base::Init"* nonnull align 1 dereferenceable(1)) unnamed_addr #1

; Function Attrs: nofree nounwind
declare i32 @__cxa_atexit(void (i8*)*, i8*, i8*) local_unnamed_addr #2

; Function Attrs: mustprogress norecurse sspstrong uwtable
define dso_local i32 @main() local_unnamed_addr #3 {
  %1 = alloca i32, align 4
  %2 = alloca [211 x i32], align 16
  %3 = bitcast i32* %1 to i8*
  call void @llvm.lifetime.start.p0i8(i64 4, i8* nonnull %3) #8
  %4 = call nonnull align 8 dereferenceable(16) %"class.std::basic_istream"* @_ZNSirsERi(%"class.std::basic_istream"* nonnull align 8 dereferenceable(16) @_ZSt3cin, i32* nonnull align 4 dereferenceable(4) %1)
  %5 = bitcast [211 x i32]* %2 to i8*
  call void @llvm.lifetime.start.p0i8(i64 844, i8* nonnull %5) #8
  call void @llvm.memset.p0i8.i64(i8* noundef nonnull align 16 dereferenceable(844) %5, i8 0, i64 844, i1 false)
  %6 = getelementptr inbounds [211 x i32], [211 x i32]* %2, i64 0, i64 1
  store i32 1, i32* %6, align 4, !tbaa !5
  %7 = load i32, i32* %1, align 4, !tbaa !5
  %8 = icmp slt i32 %7, 1
  br i1 %8, label %9, label %10

9:                                                ; preds = %81, %0
  br label %98

10:                                               ; preds = %0
  %11 = add nuw i32 %7, 1
  %12 = zext i32 %11 to i64
  %13 = add nsw i64 %12, -1
  %14 = add nsw i64 %12, -9
  %15 = lshr i64 %14, 3
  %16 = add nuw nsw i64 %15, 1
  %17 = icmp ult i64 %13, 8
  %18 = and i64 %13, -8
  %19 = or i64 %18, 1
  %20 = and i64 %16, 1
  %21 = icmp ult i64 %14, 8
  %22 = and i64 %16, 4611686018427387902
  %23 = icmp eq i64 %20, 0
  %24 = icmp eq i64 %13, %18
  br label %25

25:                                               ; preds = %81, %10
  %26 = phi i32 [ %82, %81 ], [ 1, %10 ]
  br i1 %17, label %71, label %27

27:                                               ; preds = %25
  br i1 %21, label %56, label %28

28:                                               ; preds = %27, %28
  %29 = phi i64 [ %53, %28 ], [ 0, %27 ]
  %30 = phi i64 [ %54, %28 ], [ %22, %27 ]
  %31 = or i64 %29, 1
  %32 = getelementptr inbounds [211 x i32], [211 x i32]* %2, i64 0, i64 %31
  %33 = bitcast i32* %32 to <4 x i32>*
  %34 = load <4 x i32>, <4 x i32>* %33, align 4, !tbaa !5
  %35 = getelementptr inbounds i32, i32* %32, i64 4
  %36 = bitcast i32* %35 to <4 x i32>*
  %37 = load <4 x i32>, <4 x i32>* %36, align 4, !tbaa !5
  %38 = shl <4 x i32> %34, <i32 1, i32 1, i32 1, i32 1>
  %39 = shl <4 x i32> %37, <i32 1, i32 1, i32 1, i32 1>
  %40 = bitcast i32* %32 to <4 x i32>*
  store <4 x i32> %38, <4 x i32>* %40, align 4, !tbaa !5
  %41 = bitcast i32* %35 to <4 x i32>*
  store <4 x i32> %39, <4 x i32>* %41, align 4, !tbaa !5
  %42 = or i64 %29, 9
  %43 = getelementptr inbounds [211 x i32], [211 x i32]* %2, i64 0, i64 %42
  %44 = bitcast i32* %43 to <4 x i32>*
  %45 = load <4 x i32>, <4 x i32>* %44, align 4, !tbaa !5
  %46 = getelementptr inbounds i32, i32* %43, i64 4
  %47 = bitcast i32* %46 to <4 x i32>*
  %48 = load <4 x i32>, <4 x i32>* %47, align 4, !tbaa !5
  %49 = shl <4 x i32> %45, <i32 1, i32 1, i32 1, i32 1>
  %50 = shl <4 x i32> %48, <i32 1, i32 1, i32 1, i32 1>
  %51 = bitcast i32* %43 to <4 x i32>*
  store <4 x i32> %49, <4 x i32>* %51, align 4, !tbaa !5
  %52 = bitcast i32* %46 to <4 x i32>*
  store <4 x i32> %50, <4 x i32>* %52, align 4, !tbaa !5
  %53 = add nuw i64 %29, 16
  %54 = add i64 %30, -2
  %55 = icmp eq i64 %54, 0
  br i1 %55, label %56, label %28, !llvm.loop !9

56:                                               ; preds = %28, %27
  %57 = phi i64 [ 0, %27 ], [ %53, %28 ]
  br i1 %23, label %70, label %58

58:                                               ; preds = %56
  %59 = or i64 %57, 1
  %60 = getelementptr inbounds [211 x i32], [211 x i32]* %2, i64 0, i64 %59
  %61 = bitcast i32* %60 to <4 x i32>*
  %62 = load <4 x i32>, <4 x i32>* %61, align 4, !tbaa !5
  %63 = getelementptr inbounds i32, i32* %60, i64 4
  %64 = bitcast i32* %63 to <4 x i32>*
  %65 = load <4 x i32>, <4 x i32>* %64, align 4, !tbaa !5
  %66 = shl <4 x i32> %62, <i32 1, i32 1, i32 1, i32 1>
  %67 = shl <4 x i32> %65, <i32 1, i32 1, i32 1, i32 1>
  %68 = bitcast i32* %60 to <4 x i32>*
  store <4 x i32> %66, <4 x i32>* %68, align 4, !tbaa !5
  %69 = bitcast i32* %63 to <4 x i32>*
  store <4 x i32> %67, <4 x i32>* %69, align 4, !tbaa !5
  br label %70

70:                                               ; preds = %56, %58
  br i1 %24, label %73, label %71

71:                                               ; preds = %25, %70
  %72 = phi i64 [ 1, %25 ], [ %19, %70 ]
  br label %74

73:                                               ; preds = %74, %70
  br label %84

74:                                               ; preds = %71, %74
  %75 = phi i64 [ %79, %74 ], [ %72, %71 ]
  %76 = getelementptr inbounds [211 x i32], [211 x i32]* %2, i64 0, i64 %75
  %77 = load i32, i32* %76, align 4, !tbaa !5
  %78 = shl i32 %77, 1
  store i32 %78, i32* %76, align 4, !tbaa !5
  %79 = add nuw nsw i64 %75, 1
  %80 = icmp eq i64 %79, %12
  br i1 %80, label %73, label %74, !llvm.loop !12

81:                                               ; preds = %96
  %82 = add nuw i32 %26, 1
  %83 = icmp eq i32 %26, %7
  br i1 %83, label %9, label %25, !llvm.loop !14

84:                                               ; preds = %73, %96
  %85 = phi i64 [ %89, %96 ], [ 1, %73 ]
  %86 = getelementptr inbounds [211 x i32], [211 x i32]* %2, i64 0, i64 %85
  %87 = load i32, i32* %86, align 4, !tbaa !5
  %88 = icmp ugt i32 %87, 9
  %89 = add nuw nsw i64 %85, 1
  br i1 %88, label %90, label %96

90:                                               ; preds = %84
  %91 = getelementptr inbounds [211 x i32], [211 x i32]* %2, i64 0, i64 %89
  %92 = load i32, i32* %91, align 4, !tbaa !5
  %93 = udiv i32 %87, 10
  %94 = add i32 %92, %93
  store i32 %94, i32* %91, align 4, !tbaa !5
  %95 = urem i32 %87, 10
  store i32 %95, i32* %86, align 4, !tbaa !5
  br label %96

96:                                               ; preds = %84, %90
  %97 = icmp eq i64 %89, %12
  br i1 %97, label %81, label %84, !llvm.loop !15

98:                                               ; preds = %9, %98
  %99 = phi i64 [ %103, %98 ], [ 210, %9 ]
  %100 = getelementptr inbounds [211 x i32], [211 x i32]* %2, i64 0, i64 %99
  %101 = load i32, i32* %100, align 4, !tbaa !5
  %102 = icmp eq i32 %101, 0
  %103 = add i64 %99, -1
  br i1 %102, label %98, label %104, !llvm.loop !16

104:                                              ; preds = %98
  %105 = trunc i64 %99 to i32
  %106 = icmp sgt i32 %105, 0
  br i1 %106, label %107, label %109

107:                                              ; preds = %104
  %108 = and i64 %99, 4294967295
  br label %137

109:                                              ; preds = %137, %104
  %110 = load i8*, i8** bitcast (%"class.std::basic_ostream"* @_ZSt4cout to i8**), align 8, !tbaa !17
  %111 = getelementptr i8, i8* %110, i64 -24
  %112 = bitcast i8* %111 to i64*
  %113 = load i64, i64* %112, align 8
  %114 = add nsw i64 %113, 240
  %115 = getelementptr inbounds i8, i8* bitcast (%"class.std::basic_ostream"* @_ZSt4cout to i8*), i64 %114
  %116 = bitcast i8* %115 to %"class.std::ctype"**
  %117 = load %"class.std::ctype"*, %"class.std::ctype"** %116, align 8, !tbaa !19
  %118 = icmp eq %"class.std::ctype"* %117, null
  br i1 %118, label %119, label %120

119:                                              ; preds = %109
  call void @_ZSt16__throw_bad_castv() #9
  unreachable

120:                                              ; preds = %109
  %121 = getelementptr inbounds %"class.std::ctype", %"class.std::ctype"* %117, i64 0, i32 8
  %122 = load i8, i8* %121, align 8, !tbaa !23
  %123 = icmp eq i8 %122, 0
  br i1 %123, label %127, label %124

124:                                              ; preds = %120
  %125 = getelementptr inbounds %"class.std::ctype", %"class.std::ctype"* %117, i64 0, i32 9, i64 10
  %126 = load i8, i8* %125, align 1, !tbaa !25
  br label %133

127:                                              ; preds = %120
  call void @_ZNKSt5ctypeIcE13_M_widen_initEv(%"class.std::ctype"* nonnull align 8 dereferenceable(570) %117)
  %128 = bitcast %"class.std::ctype"* %117 to i8 (%"class.std::ctype"*, i8)***
  %129 = load i8 (%"class.std::ctype"*, i8)**, i8 (%"class.std::ctype"*, i8)*** %128, align 8, !tbaa !17
  %130 = getelementptr inbounds i8 (%"class.std::ctype"*, i8)*, i8 (%"class.std::ctype"*, i8)** %129, i64 6
  %131 = load i8 (%"class.std::ctype"*, i8)*, i8 (%"class.std::ctype"*, i8)** %130, align 8
  %132 = call signext i8 %131(%"class.std::ctype"* nonnull align 8 dereferenceable(570) %117, i8 signext 10)
  br label %133

133:                                              ; preds = %124, %127
  %134 = phi i8 [ %126, %124 ], [ %132, %127 ]
  %135 = call nonnull align 8 dereferenceable(8) %"class.std::basic_ostream"* @_ZNSo3putEc(%"class.std::basic_ostream"* nonnull align 8 dereferenceable(8) @_ZSt4cout, i8 signext %134)
  %136 = call nonnull align 8 dereferenceable(8) %"class.std::basic_ostream"* @_ZNSo5flushEv(%"class.std::basic_ostream"* nonnull align 8 dereferenceable(8) %135)
  call void @llvm.lifetime.end.p0i8(i64 844, i8* nonnull %5) #8
  call void @llvm.lifetime.end.p0i8(i64 4, i8* nonnull %3) #8
  ret i32 0

137:                                              ; preds = %107, %137
  %138 = phi i64 [ %108, %107 ], [ %144, %137 ]
  %139 = getelementptr inbounds [211 x i32], [211 x i32]* %2, i64 0, i64 %138
  %140 = load i32, i32* %139, align 4, !tbaa !5
  %141 = zext i32 %140 to i64
  %142 = call nonnull align 8 dereferenceable(8) %"class.std::basic_ostream"* @_ZNSo9_M_insertImEERSoT_(%"class.std::basic_ostream"* nonnull align 8 dereferenceable(8) @_ZSt4cout, i64 %141)
  %143 = icmp sgt i64 %138, 1
  %144 = add nsw i64 %138, -1
  br i1 %143, label %137, label %109, !llvm.loop !26
}

; Function Attrs: argmemonly mustprogress nofree nosync nounwind willreturn
declare void @llvm.lifetime.start.p0i8(i64 immarg, i8* nocapture) #4

declare nonnull align 8 dereferenceable(16) %"class.std::basic_istream"* @_ZNSirsERi(%"class.std::basic_istream"* nonnull align 8 dereferenceable(16), i32* nonnull align 4 dereferenceable(4)) local_unnamed_addr #0

; Function Attrs: argmemonly mustprogress nofree nounwind willreturn writeonly
declare void @llvm.memset.p0i8.i64(i8* nocapture writeonly, i8, i64, i1 immarg) #5

; Function Attrs: argmemonly mustprogress nofree nosync nounwind willreturn
declare void @llvm.lifetime.end.p0i8(i64 immarg, i8* nocapture) #4

declare nonnull align 8 dereferenceable(8) %"class.std::basic_ostream"* @_ZNSo9_M_insertImEERSoT_(%"class.std::basic_ostream"* nonnull align 8 dereferenceable(8), i64) local_unnamed_addr #0

declare nonnull align 8 dereferenceable(8) %"class.std::basic_ostream"* @_ZNSo3putEc(%"class.std::basic_ostream"* nonnull align 8 dereferenceable(8), i8 signext) local_unnamed_addr #0

declare nonnull align 8 dereferenceable(8) %"class.std::basic_ostream"* @_ZNSo5flushEv(%"class.std::basic_ostream"* nonnull align 8 dereferenceable(8)) local_unnamed_addr #0

; Function Attrs: noreturn
declare void @_ZSt16__throw_bad_castv() local_unnamed_addr #6

declare void @_ZNKSt5ctypeIcE13_M_widen_initEv(%"class.std::ctype"* nonnull align 8 dereferenceable(570)) local_unnamed_addr #0

; Function Attrs: sspstrong uwtable
define internal void @_GLOBAL__sub_I_1288.cpp() #7 section ".text.startup" {
  tail call void @_ZNSt8ios_base4InitC1Ev(%"class.std::ios_base::Init"* nonnull align 1 dereferenceable(1) @_ZStL8__ioinit)
  %1 = tail call i32 @__cxa_atexit(void (i8*)* bitcast (void (%"class.std::ios_base::Init"*)* @_ZNSt8ios_base4InitD1Ev to void (i8*)*), i8* getelementptr inbounds (%"class.std::ios_base::Init", %"class.std::ios_base::Init"* @_ZStL8__ioinit, i64 0, i32 0), i8* nonnull @__dso_handle) #8
  ret void
}


!llvm.module.flags = !{!0, !1, !2, !3}
!llvm.ident = !{!4}

!0 = !{i32 1, !"wchar_size", i32 4}
!1 = !{i32 7, !"PIC Level", i32 2}
!2 = !{i32 7, !"PIE Level", i32 2}
!3 = !{i32 7, !"uwtable", i32 1}
!4 = !{!"clang version 13.0.0"}
!5 = !{!6, !6, i64 0}
!6 = !{!"int", !7, i64 0}
!7 = !{!"omnipotent char", !8, i64 0}
!8 = !{!"Simple C++ TBAA"}
!9 = distinct !{!9, !10, !11}
!10 = !{!"llvm.loop.mustprogress"}
!11 = !{!"llvm.loop.isvectorized", i32 1}
!12 = distinct !{!12, !10, !13, !11}
!13 = !{!"llvm.loop.unroll.runtime.disable"}
!14 = distinct !{!14, !10}
!15 = distinct !{!15, !10}
!16 = distinct !{!16, !10}
!17 = !{!18, !18, i64 0}
!18 = !{!"vtable pointer", !8, i64 0}
!19 = !{!20, !21, i64 240}
!20 = !{!"_ZTSSt9basic_iosIcSt11char_traitsIcEE", !21, i64 216, !7, i64 224, !22, i64 225, !21, i64 232, !21, i64 240, !21, i64 248, !21, i64 256}
!21 = !{!"any pointer", !7, i64 0}
!22 = !{!"bool", !7, i64 0}
!23 = !{!24, !7, i64 56}
!24 = !{!"_ZTSSt5ctypeIcE", !21, i64 16, !22, i64 24, !21, i64 32, !21, i64 40, !21, i64 48, !7, i64 56, !7, i64 57, !7, i64 313, !7, i64 569}
!25 = !{!7, !7, i64 0}
!26 = distinct !{!26, !10}
